(dp1
S'_centromere'
p2
NsS'name'
p3
S'My first chromosome'
p4
sS'max_tad_size'
p5
I5000000
sS'forbidden'
p6
(dp7
sS'experiments'
p8
(dp9
S'First Hi-C experiment'
p10
(dp11
S'tads'
p12
(dp13
I1
(dp14
S'start'
p15
F0
sS'score'
p16
F2
sS'end'
p17
F5
sS'brk'
p18
F5
ssI2
(dp19
g15
F6
sg16
F5
sg17
F12
sg18
F12
ssI3
(dp20
g15
F13
sg16
F6
sg17
F31
sg18
F31
ssI4
(dp21
g15
F32
sg16
F5
sg17
F45
sg18
F45
ssI5
(dp22
g15
F46
sg16
F3
sg17
F58
sg18
F58
ssI6
(dp23
g15
F59
sg16
F6
sg17
F69
sg18
F69
ssI7
(dp24
g15
F70
sg16
F2
sg17
F77
sg18
F77
ssI8
(dp25
g15
F78
sg16
F8
sg17
F103
sg18
F103
ssI9
(dp26
g15
F104
sg16
F4
sg17
F108
sg18
F108
ssI10
(dp27
g15
F109
sg16
F4
sg17
F114
sg18
F114
ssI11
(dp28
g15
F115
sg16
F2
sg17
F124
sg18
F124
ssI12
(dp29
g15
F125
sg16
F2
sg17
F131
sg18
F131
ssI13
(dp30
g15
F132
sg16
F3
sg17
F136
sg18
F136
ssI14
(dp31
g15
F137
sg16
F8
sg17
F144
sg18
F144
ssI15
(dp32
g15
F145
sg16
F6
sg17
F163
sg18
F163
ssI16
(dp33
g15
F164
sg16
F5
sg17
F183
sg18
F183
ssI17
(dp34
g15
F184
sg16
F1
sg17
F188
sg18
F188
ssI18
(dp35
g15
F189
sg16
F8
sg17
F194
sg18
F194
ssI19
(dp36
g15
F195
sg16
F4
sg17
F244
sg18
F244
ssI20
(dp37
g15
F245
sg16
F3
sg17
F329
sg18
F329
ssI21
(dp38
g15
F330
sg16
F4
sg17
F347
sg18
F347
ssI22
(dp39
g15
F348
sg16
F5
sg17
F355
sg18
F355
ssI23
(dp40
g15
F356
sg16
F6
sg17
F377
sg18
F377
ssI24
(dp41
g15
F378
sg16
F5
sg17
F383
sg18
F383
ssI25
(dp42
g15
F384
sg16
F4
sg17
F399
sg18
F399
ssI26
(dp43
g15
F400
sg16
F9
sg17
F412
sg18
F412
ssI27
(dp44
g15
F413
sg16
F4
sg17
F434
sg18
F434
ssI28
(dp45
g15
F435
sg16
F5
sg17
F446
sg18
F446
ssI29
(dp46
g15
F447
sg16
F4
sg17
F452
sg18
F452
ssI30
(dp47
g15
F453
sg16
F2
sg17
F457
sg18
F457
ssI31
(dp48
g15
F458
sg16
F4
sg17
F471
sg18
F471
ssI32
(dp49
g15
F472
sg16
F5
sg17
F477
sg18
F477
ssI33
(dp50
g15
F478
sg16
F8
sg17
F485
sg18
F485
ssI34
(dp51
g15
F486
sg16
F3
sg17
F497
sg18
F497
ssI35
(dp52
g15
F498
sg16
F5
sg17
F505
sg18
F505
ssI36
(dp53
g15
F506
sg16
F3
sg17
F523
sg18
F523
ssI37
(dp54
g15
F524
sg16
F8
sg17
F530
sg18
F530
ssI38
(dp55
g15
F531
sg16
F5
sg17
F553
sg18
F553
ssI39
(dp56
g15
F554
sg16
F5
sg17
F562
sg18
F562
ssI40
(dp57
g15
F563
sg16
F6
sg17
F593
sg18
F593
ssI41
(dp58
g15
F594
sg16
F7
sg17
F608
sg18
F608
ssI42
(dp59
g15
F609
sg16
F10
sg17
F638
sg18
F638
sssS'cond'
p60
(lp61
sS'wght'
p62
NsS'resolution'
p63
I100000
sS'hi-c'
p64
NsS'size'
p65
I639
sssS'r_size'
p66
ccopy_reg
_reconstructor
p67
(cpytadbit.chromosome
RelativeChromosomeSize
p68
c__builtin__
int
p69
I0
tRp70
sS'experiment_order'
p71
(lp72
g10
asg65
g67
(cpytadbit.chromosome
ChromosomeSize
p73
g69
I0
tRp74
s.