(dp1
S'_centromere'
p2
(lp3
F245
aF324
asS'name'
p4
S'chr19'
p5
sS'max_tad_size'
p6
I5000000
sS'forbidden'
p7
(dp8
I256
S'Centromere'
p9
sI257
g9
sI258
g9
sI259
g9
sI260
g9
sI261
g9
sI262
g9
sI263
g9
sI264
g9
sI265
g9
sI266
g9
sI267
g9
sI268
g9
sI269
g9
sI270
g9
sI271
g9
sI272
g9
sI273
g9
sI274
g9
sI275
g9
sI276
g9
sI277
g9
sI278
g9
sI279
g9
sI280
g9
sI281
g9
sI282
g9
sI283
g9
sI284
g9
sI285
g9
sI286
g9
sI287
g9
sI288
g9
sI289
g9
sI290
g9
sI291
g9
sI292
g9
sI293
g9
sI294
g9
sI295
g9
sI296
g9
sI297
g9
sI298
g9
sI299
g9
sI300
g9
sI301
g9
sI302
g9
sI303
g9
sI304
g9
sI305
g9
sI306
g9
sI307
g9
sI308
g9
sI309
g9
sI310
g9
sI311
g9
sI312
g9
sI313
g9
sI314
g9
sI315
g9
sI316
g9
sI317
g9
sI318
g9
sI319
g9
sI320
g9
sI321
g9
sI322
g9
sI323
g9
sI324
NsI325
NsI326
NsI327
NsI328
NsI329
NsI245
g9
sI246
g9
sI247
g9
sI248
g9
sI249
g9
sI250
g9
sI251
g9
sI252
g9
sI253
g9
sI254
g9
sI255
g9
ssS'experiments'
p10
(dp11
S'k562'
p12
(dp13
S'tads'
p14
(dp15
I1
(dp16
S'start'
p17
F0
sS'score'
p18
F2
sS'end'
p19
F5
sS'brk'
p20
F5
ssI2
(dp21
g17
F6
sg18
F5
sg19
F12
sg20
F12
ssI3
(dp22
g17
F13
sg18
F6
sg19
F31
sg20
F31
ssI4
(dp23
g17
F32
sg18
F5
sg19
F45
sg20
F45
ssI5
(dp24
g17
F46
sg18
F3
sg19
F58
sg20
F58
ssI6
(dp25
g17
F59
sg18
F6
sg19
F69
sg20
F69
ssI7
(dp26
g17
F70
sg18
F2
sg19
F77
sg20
F77
ssI8
(dp27
g17
F78
sg18
F8
sg19
F103
sg20
F103
ssI9
(dp28
g17
F104
sg18
F4
sg19
F108
sg20
F108
ssI10
(dp29
g17
F109
sg18
F4
sg19
F114
sg20
F114
ssI11
(dp30
g17
F115
sg18
F2
sg19
F124
sg20
F124
ssI12
(dp31
g17
F125
sg18
F2
sg19
F131
sg20
F131
ssI13
(dp32
g17
F132
sg18
F3
sg19
F136
sg20
F136
ssI14
(dp33
g17
F137
sg18
F8
sg19
F144
sg20
F144
ssI15
(dp34
g17
F145
sg18
F6
sg19
F163
sg20
F163
ssI16
(dp35
g17
F164
sg18
F5
sg19
F183
sg20
F183
ssI17
(dp36
g17
F184
sg18
F1
sg19
F188
sg20
F188
ssI18
(dp37
g17
F189
sg18
F8
sg19
F194
sg20
F194
ssI19
(dp38
g17
F195
sg18
F4
sg19
F244
sg20
F244
ssI20
(dp39
g17
F245
sg18
F-3
sg19
F323
sg20
F323
ssI21
(dp40
g17
F324
sg18
F3
sg19
F329
sg20
F329
ssI22
(dp41
g17
F330
sg18
F4
sg19
F347
sg20
F347
ssI23
(dp42
g17
F348
sg18
F5
sg19
F355
sg20
F355
ssI24
(dp43
g17
F356
sg18
F6
sg19
F377
sg20
F377
ssI25
(dp44
g17
F378
sg18
F5
sg19
F383
sg20
F383
ssI26
(dp45
g17
F384
sg18
F4
sg19
F399
sg20
F399
ssI27
(dp46
g17
F400
sg18
F9
sg19
F412
sg20
F412
ssI28
(dp47
g17
F413
sg18
F4
sg19
F434
sg20
F434
ssI29
(dp48
g17
F435
sg18
F5
sg19
F446
sg20
F446
ssI30
(dp49
g17
F447
sg18
F4
sg19
F452
sg20
F452
ssI31
(dp50
g17
F453
sg18
F2
sg19
F457
sg20
F457
ssI32
(dp51
g17
F458
sg18
F4
sg19
F471
sg20
F471
ssI33
(dp52
g17
F472
sg18
F5
sg19
F477
sg20
F477
ssI34
(dp53
g17
F478
sg18
F8
sg19
F485
sg20
F485
ssI35
(dp54
g17
F486
sg18
F3
sg19
F497
sg20
F497
ssI36
(dp55
g17
F498
sg18
F5
sg19
F505
sg20
F505
ssI37
(dp56
g17
F506
sg18
F3
sg19
F523
sg20
F523
ssI38
(dp57
g17
F524
sg18
F8
sg19
F530
sg20
F530
ssI39
(dp58
g17
F531
sg18
F5
sg19
F553
sg20
F553
ssI40
(dp59
g17
F554
sg18
F5
sg19
F562
sg20
F562
ssI41
(dp60
g17
F563
sg18
F6
sg19
F593
sg20
F593
ssI42
(dp61
g17
F594
sg18
F7
sg19
F608
sg20
F608
ssI43
(dp62
g17
F609
sg18
F10
sg19
F638
sg20
F638
sssS'cond'
p63
(lp64
sS'wght'
p65
NsS'resolution'
p66
I100000
sS'hi-c'
p67
NsS'size'
p68
I639
ssS'gm06690'
p69
(dp70
g14
(dp71
I1
(dp72
g17
F0
sg18
F5
sg19
F4
sg20
F4
ssI2
(dp73
g17
F5
sg18
F6
sg19
F11
sg20
F11
ssI3
(dp74
g17
F12
sg18
F7
sg19
F17
sg20
F17
ssI4
(dp75
g17
F18
sg18
F2
sg19
F26
sg20
F26
ssI5
(dp76
g17
F27
sg18
F5
sg19
F41
sg20
F41
ssI6
(dp77
g17
F42
sg18
F2
sg19
F46
sg20
F46
ssI7
(dp78
g17
F47
sg18
F7
sg19
F56
sg20
F56
ssI8
(dp79
g17
F57
sg18
F10
sg19
F78
sg20
F78
ssI9
(dp80
g17
F79
sg18
F5
sg19
F85
sg20
F85
ssI10
(dp81
g17
F86
sg18
F10
sg19
F97
sg20
F97
ssI11
(dp82
g17
F98
sg18
F9
sg19
F114
sg20
F114
ssI12
(dp83
g17
F115
sg18
F5
sg19
F126
sg20
F126
ssI13
(dp84
g17
F127
sg18
F-10
sg19
F194
sg20
F194
ssI14
(dp85
g17
F195
sg18
F4
sg19
F245
sg20
F245
ssI15
(dp86
g17
F324
sg18
F-4
sg19
F377
sg20
F377
ssI16
(dp87
g17
F378
sg18
F6
sg19
F396
sg20
F396
ssI17
(dp88
g17
F397
sg18
F6
sg19
F401
sg20
F401
ssI18
(dp89
g17
F402
sg18
F5
sg19
F412
sg20
F412
ssI19
(dp90
g17
F413
sg18
F4
sg19
F430
sg20
F430
ssI20
(dp91
g17
F431
sg18
F8
sg19
F477
sg20
F477
ssI21
(dp92
g17
F478
sg18
F8
sg19
F485
sg20
F485
ssI22
(dp93
g17
F486
sg18
F5
sg19
F497
sg20
F497
ssI23
(dp94
g17
F498
sg18
F7
sg19
F509
sg20
F509
ssI24
(dp95
g17
F510
sg18
F4
sg19
F530
sg20
F530
ssI25
(dp96
g17
F531
sg18
F7
sg19
F553
sg20
F553
ssI26
(dp97
g17
F554
sg18
F5
sg19
F562
sg20
F562
ssI27
(dp98
g17
F563
sg18
F7
sg19
F568
sg20
F568
ssI28
(dp99
g17
F569
sg18
F6
sg19
F592
sg20
F592
ssI29
(dp100
g17
F593
sg18
F10
sg19
F608
sg20
F608
ssI30
(dp101
g17
F609
sg18
F4
sg19
F623
sg20
F623
ssI31
(dp102
g17
F624
sg18
F10
sg19
F638
sg20
F638
sssg63
(lp103
sg65
Nsg66
I100000
sg67
Nsg68
I639
ssS'k562+gm06690'
p104
(dp105
g14
(dp106
sg63
(lp107
sg65
Nsg66
I100000
sg67
Nsg68
I639
ssS'batch_gm06690_k562'
p108
(dp109
g14
(dp110
I1
(dp111
g17
F0
sg18
F4
sg19
F5
sg20
F5
ssI2
(dp112
g17
F6
sg18
F6
sg19
F11
sg20
F11
ssI3
(dp113
g17
F12
sg18
F4
sg19
F41
sg20
F41
ssI4
(dp114
g17
F42
sg18
F2
sg19
F46
sg20
F46
ssI5
(dp115
g17
F47
sg18
F6
sg19
F56
sg20
F56
ssI6
(dp116
g17
F57
sg18
F8
sg19
F78
sg20
F78
ssI7
(dp117
g17
F79
sg18
F5
sg19
F85
sg20
F85
ssI8
(dp118
g17
F86
sg18
F7
sg19
F97
sg20
F97
ssI9
(dp119
g17
F98
sg18
F2
sg19
F108
sg20
F108
ssI10
(dp120
g17
F109
sg18
F10
sg19
F114
sg20
F114
ssI11
(dp121
g17
F115
sg18
F3
sg19
F126
sg20
F126
ssI12
(dp122
g17
F127
sg18
F2
sg19
F131
sg20
F131
ssI13
(dp123
g17
F132
sg18
F2
sg19
F136
sg20
F136
ssI14
(dp124
g17
F137
sg18
F9
sg19
F144
sg20
F144
ssI15
(dp125
g17
F145
sg18
F4
sg19
F163
sg20
F163
ssI16
(dp126
g17
F164
sg18
F10
sg19
F194
sg20
F194
ssI17
(dp127
g17
F195
sg18
F4
sg19
F244
sg20
F244
ssI18
(dp128
g17
F245
sg18
F-7
sg19
F323
sg20
F323
ssI19
(dp129
g17
F324
sg18
F-7
sg19
F377
sg20
F377
ssI20
(dp130
g17
F378
sg18
F6
sg19
F396
sg20
F396
ssI21
(dp131
g17
F397
sg18
F5
sg19
F401
sg20
F401
ssI22
(dp132
g17
F402
sg18
F7
sg19
F412
sg20
F412
ssI23
(dp133
g17
F413
sg18
F5
sg19
F429
sg20
F429
ssI24
(dp134
g17
F430
sg18
F3
sg19
F434
sg20
F434
ssI25
(dp135
g17
F435
sg18
F2
sg19
F441
sg20
F441
ssI26
(dp136
g17
F442
sg18
F2
sg19
F471
sg20
F471
ssI27
(dp137
g17
F472
sg18
F7
sg19
F477
sg20
F477
ssI28
(dp138
g17
F478
sg18
F9
sg19
F485
sg20
F485
ssI29
(dp139
g17
F486
sg18
F5
sg19
F497
sg20
F497
ssI30
(dp140
g17
F498
sg18
F4
sg19
F509
sg20
F509
ssI31
(dp141
g17
F510
sg18
F6
sg19
F530
sg20
F530
ssI32
(dp142
g17
F531
sg18
F7
sg19
F553
sg20
F553
ssI33
(dp143
g17
F554
sg18
F5
sg19
F562
sg20
F562
ssI34
(dp144
g17
F563
sg18
F6
sg19
F568
sg20
F568
ssI35
(dp145
g17
F569
sg18
F5
sg19
F592
sg20
F592
ssI36
(dp146
g17
F593
sg18
F10
sg19
F608
sg20
F608
ssI37
(dp147
g17
F609
sg18
F10
sg19
F638
sg20
F638
sssg63
(lp148
sg65
Nsg66
I100000
sg67
Nsg68
I639
sssS'r_size'
p149
ccopy_reg
_reconstructor
p150
(cpytadbit.chromosome
RelativeChromosomeSize
p151
c__builtin__
int
p152
I63800000
tRp153
sS'experiment_order'
p154
(lp155
g12
ag69
ag104
ag108
asg68
g150
(cpytadbit.chromosome
ChromosomeSize
p156
g152
I63800000
tRp157
s.