(dp1
S'_centromere'
p2
(lp3
F245
aF324
asS'assembly'
p4
S'NCBI36'
p5
sS'name'
p6
S'chr19'
p7
sS'max_tad_size'
p8
I3000000
sS'forbidden'
p9
(dp10
I256
S'Centromere'
p11
sI257
g11
sI258
g11
sI259
g11
sI260
g11
sI261
g11
sI262
g11
sI263
g11
sI264
g11
sI265
g11
sI266
g11
sI267
g11
sI268
g11
sI269
g11
sI270
g11
sI271
g11
sI272
g11
sI273
g11
sI274
g11
sI275
g11
sI276
g11
sI277
g11
sI278
g11
sI279
g11
sI280
g11
sI281
g11
sI282
g11
sI283
g11
sI284
g11
sI285
g11
sI286
g11
sI287
g11
sI288
g11
sI289
g11
sI290
g11
sI291
g11
sI292
g11
sI293
g11
sI294
g11
sI295
g11
sI296
g11
sI297
g11
sI298
g11
sI299
g11
sI300
g11
sI301
g11
sI302
g11
sI303
g11
sI304
g11
sI305
g11
sI306
g11
sI307
g11
sI308
g11
sI309
g11
sI310
g11
sI311
g11
sI312
g11
sI313
g11
sI314
g11
sI315
g11
sI316
g11
sI317
g11
sI318
g11
sI319
g11
sI320
g11
sI321
g11
sI322
g11
sI323
g11
sI245
g11
sI246
g11
sI247
g11
sI248
g11
sI249
g11
sI250
g11
sI251
g11
sI252
g11
sI253
g11
sI254
g11
sI255
g11
ssS'description'
p12
(dp13
sS'experiments'
p14
(dp15
S'k562'
p16
(dp17
S'iden'
p18
g16
sS'tads'
p19
(dp20
I1
(dp21
S'start'
p22
F0
sS'score'
p23
F2
sS'end'
p24
F5
sS'brk'
p25
F5
ssI2
(dp26
g22
F0
sg23
F2
sg24
F5
sg25
F5
ssI3
(dp27
g22
F6
sg23
F2
sg24
F11
sg25
F11
ssI4
(dp28
g22
F12
sg23
F7
sg24
F31
sg25
F31
ssI5
(dp29
g22
F32
sg23
F5
sg24
F45
sg25
F45
ssI6
(dp30
g22
F46
sg23
F5
sg24
F56
sg25
F56
ssI7
(dp31
g22
F57
sg23
F7
sg24
F69
sg25
F69
ssI8
(dp32
g22
F70
sg23
F3
sg24
F82
sg25
F82
ssI9
(dp33
g22
F83
sg23
F4
sg24
F103
sg25
F103
ssI10
(dp34
g22
F104
sg23
F7
sg24
F108
sg25
F108
ssI11
(dp35
g22
F109
sg23
F6
sg24
F128
sg25
F128
ssI12
(dp36
g22
F129
sg23
F-6
sg24
F183
sg25
F183
ssI13
(dp37
g22
F184
sg23
F4
sg24
F194
sg25
F194
ssI14
(dp38
g22
F195
sg23
F-4
sg24
F236
sg25
F236
ssI15
(dp39
g22
F237
sg23
F5
sg24
F244
sg25
F244
ssI16
(dp40
g22
F324
sg23
F4
sg24
F329
sg25
F329
ssI17
(dp41
g22
F330
sg23
F4
sg24
F347
sg25
F347
ssI18
(dp42
g22
F348
sg23
F2
sg24
F352
sg25
F352
ssI19
(dp43
g22
F353
sg23
F8
sg24
F377
sg25
F377
ssI20
(dp44
g22
F378
sg23
F3
sg24
F383
sg25
F383
ssI21
(dp45
g22
F384
sg23
F6
sg24
F399
sg25
F399
ssI22
(dp46
g22
F400
sg23
F9
sg24
F412
sg25
F412
ssI23
(dp47
g22
F413
sg23
F3
sg24
F432
sg25
F432
ssI24
(dp48
g22
F433
sg23
F6
sg24
F445
sg25
F445
ssI25
(dp49
g22
F446
sg23
F4
sg24
F471
sg25
F471
ssI26
(dp50
g22
F472
sg23
F5
sg24
F477
sg25
F477
ssI27
(dp51
g22
F478
sg23
F7
sg24
F485
sg25
F485
ssI28
(dp52
g22
F486
sg23
F3
sg24
F500
sg25
F500
ssI29
(dp53
g22
F501
sg23
F7
sg24
F505
sg25
F505
ssI30
(dp54
g22
F506
sg23
F2
sg24
F521
sg25
F521
ssI31
(dp55
g22
F522
sg23
F5
sg24
F530
sg25
F530
ssI32
(dp56
g22
F531
sg23
F4
sg24
F553
sg25
F553
ssI33
(dp57
g22
F554
sg23
F6
sg24
F562
sg25
F562
ssI34
(dp58
g22
F563
sg23
F5
sg24
F569
sg25
F569
ssI35
(dp59
g22
F570
sg23
F6
sg24
F593
sg25
F593
ssI36
(dp60
g22
F594
sg23
F7
sg24
F608
sg25
F608
ssI37
(dp61
g22
F609
sg23
F10
sg24
F638
sg25
F638
sssS'zero'
p62
(dp63
sS'cond'
p64
(lp65
sS'enzy'
p66
NsS'desc'
p67
(dp68
S'project'
p69
S'TADbit tutorial'
p70
ssS'expt'
p71
S'Hi-C'
p72
sS'cell'
p73
S'wild type'
p74
sS'wght'
p75
NsS'size'
p76
I639
sS'resolution'
p77
I100000
sS'hi-c'
p78
NssS'gm06690'
p79
(dp80
g18
g79
sg19
(dp81
I1
(dp82
g22
F0
sg23
F5
sg24
F4
sg25
F4
ssI2
(dp83
g22
F5
sg23
F5
sg24
F11
sg25
F11
ssI3
(dp84
g22
F12
sg23
F9
sg24
F17
sg25
F17
ssI4
(dp85
g22
F18
sg23
F3
sg24
F27
sg25
F27
ssI5
(dp86
g22
F28
sg23
F6
sg24
F41
sg25
F41
ssI6
(dp87
g22
F42
sg23
F3
sg24
F46
sg25
F46
ssI7
(dp88
g22
F47
sg23
F6
sg24
F56
sg25
F56
ssI8
(dp89
g22
F57
sg23
F10
sg24
F78
sg25
F78
ssI9
(dp90
g22
F79
sg23
F5
sg24
F85
sg25
F85
ssI10
(dp91
g22
F86
sg23
F10
sg24
F97
sg25
F97
ssI11
(dp92
g22
F98
sg23
F8
sg24
F114
sg25
F114
ssI12
(dp93
g22
F115
sg23
F4
sg24
F125
sg25
F125
ssI13
(dp94
g22
F126
sg23
F5
sg24
F130
sg25
F130
ssI14
(dp95
g22
F131
sg23
F6
sg24
F144
sg25
F144
ssI15
(dp96
g22
F145
sg23
F4
sg24
F163
sg25
F163
ssI16
(dp97
g22
F164
sg23
F9
sg24
F194
sg25
F194
ssI17
(dp98
g22
F195
sg23
F-7
sg24
F245
sg25
F245
ssI18
(dp99
g22
F324
sg23
F-7
sg24
F374
sg25
F374
ssI19
(dp100
g22
F375
sg23
F7
sg24
F396
sg25
F396
ssI20
(dp101
g22
F397
sg23
F7
sg24
F401
sg25
F401
ssI21
(dp102
g22
F402
sg23
F5
sg24
F412
sg25
F412
ssI22
(dp103
g22
F413
sg23
F6
sg24
F430
sg25
F430
ssI23
(dp104
g22
F431
sg23
F-8
sg24
F477
sg25
F477
ssI24
(dp105
g22
F478
sg23
F8
sg24
F485
sg25
F485
ssI25
(dp106
g22
F486
sg23
F6
sg24
F497
sg25
F497
ssI26
(dp107
g22
F498
sg23
F6
sg24
F509
sg25
F509
ssI27
(dp108
g22
F510
sg23
F4
sg24
F530
sg25
F530
ssI28
(dp109
g22
F531
sg23
F10
sg24
F553
sg25
F553
ssI29
(dp110
g22
F554
sg23
F5
sg24
F562
sg25
F562
ssI30
(dp111
g22
F563
sg23
F7
sg24
F568
sg25
F568
ssI31
(dp112
g22
F569
sg23
F6
sg24
F592
sg25
F592
ssI32
(dp113
g22
F593
sg23
F10
sg24
F608
sg25
F608
ssI33
(dp114
g22
F609
sg23
F4
sg24
F623
sg25
F623
ssI34
(dp115
g22
F624
sg23
F10
sg24
F638
sg25
F638
sssg62
(dp116
sg64
(lp117
sg66
Nsg67
(dp118
g69
S'TADbit tutorial'
p119
ssg71
S'Hi-C'
p120
sg73
S'cancer'
p121
sg75
Nsg76
I639
sg77
I100000
sg78
NssS'k562+gm06690'
p122
(dp123
g18
S'k562+gm06690'
p124
sg19
(dp125
sg62
(dp126
sg64
(lp127
sg66
Nsg67
g68
sg71
g72
sg73
S'wild type+cancer'
p128
sg75
Nsg76
I639
sg77
I100000
sg78
NssS'batch_gm06690_k562'
p129
(dp130
g18
Nsg19
(dp131
I1
(dp132
g22
F0
sg23
F4
sg24
F4
sg25
F4
ssI2
(dp133
g22
F0
sg23
F4
sg24
F4
sg25
F4
ssI3
(dp134
g22
F5
sg23
F5
sg24
F11
sg25
F11
ssI4
(dp135
g22
F12
sg23
F7
sg24
F17
sg25
F17
ssI5
(dp136
g22
F18
sg23
F1
sg24
F31
sg25
F31
ssI6
(dp137
g22
F32
sg23
F3
sg24
F41
sg25
F41
ssI7
(dp138
g22
F42
sg23
F1
sg24
F46
sg25
F46
ssI8
(dp139
g22
F47
sg23
F7
sg24
F56
sg25
F56
ssI9
(dp140
g22
F57
sg23
F8
sg24
F78
sg25
F78
ssI10
(dp141
g22
F79
sg23
F4
sg24
F85
sg25
F85
ssI11
(dp142
g22
F86
sg23
F9
sg24
F97
sg25
F97
ssI12
(dp143
g22
F98
sg23
F3
sg24
F108
sg25
F108
ssI13
(dp144
g22
F109
sg23
F8
sg24
F114
sg25
F114
ssI14
(dp145
g22
F115
sg23
F2
sg24
F125
sg25
F125
ssI15
(dp146
g22
F126
sg23
F3
sg24
F130
sg25
F130
ssI16
(dp147
g22
F131
sg23
F6
sg24
F144
sg25
F144
ssI17
(dp148
g22
F145
sg23
F3
sg24
F163
sg25
F163
ssI18
(dp149
g22
F164
sg23
F10
sg24
F194
sg25
F194
ssI19
(dp150
g22
F195
sg23
F-10
sg24
F244
sg25
F244
ssI20
(dp151
g22
F324
sg23
F-5
sg24
F374
sg25
F374
ssI21
(dp152
g22
F375
sg23
F6
sg24
F396
sg25
F396
ssI22
(dp153
g22
F397
sg23
F6
sg24
F401
sg25
F401
ssI23
(dp154
g22
F402
sg23
F7
sg24
F412
sg25
F412
ssI24
(dp155
g22
F413
sg23
F6
sg24
F430
sg25
F430
ssI25
(dp156
g22
F431
sg23
F-7
sg24
F477
sg25
F477
ssI26
(dp157
g22
F478
sg23
F8
sg24
F485
sg25
F485
ssI27
(dp158
g22
F486
sg23
F5
sg24
F497
sg25
F497
ssI28
(dp159
g22
F498
sg23
F5
sg24
F509
sg25
F509
ssI29
(dp160
g22
F510
sg23
F4
sg24
F530
sg25
F530
ssI30
(dp161
g22
F531
sg23
F6
sg24
F553
sg25
F553
ssI31
(dp162
g22
F554
sg23
F5
sg24
F562
sg25
F562
ssI32
(dp163
g22
F563
sg23
F5
sg24
F568
sg25
F568
ssI33
(dp164
g22
F569
sg23
F6
sg24
F592
sg25
F592
ssI34
(dp165
g22
F593
sg23
F9
sg24
F608
sg25
F608
ssI35
(dp166
g22
F609
sg23
F10
sg24
F638
sg25
F638
sssg62
(dp167
sg64
(lp168
sg66
Nsg67
(dp169
sg71
S'Hi-C'
p170
sg73
Nsg75
Nsg76
I639
sg77
I100000
sg78
NsssS'r_size'
p171
ccopy_reg
_reconstructor
p172
(cpytadbit.chromosome
RelativeChromosomeSize
p173
c__builtin__
int
p174
I63800000
tRp175
sS'experiment_order'
p176
(lp177
g16
ag79
ag122
ag129
asS'species'
p178
S'Homo sapiens'
p179
sg76
g172
(cpytadbit.chromosome
ChromosomeSize
p180
g174
I63800000
tRp181
s.